target datalayout = "e-m:e-p270:32:32-p271:32:32-p272:64:64-i64:64-i128:128-f80:128-n8:16:32:64-S128"
target triple = "x86_64-pc-linux-gnu"

%struct.mbedtls_cipher_context_t = type { ptr, i32, i32, ptr, ptr, [16 x i8], i64, [16 x i8], i64, ptr, ptr }
%struct.mbedtls_cmac_context_t = type { [16 x i8], [16 x i8], i64 }
%struct.mbedtls_cipher_info_t = type { ptr, i32 }

; Function Attrs: alwaysinline nounwind uwtable
define internal void @mbedtls_put_unaligned_uint64(ptr noundef %0, i64 noundef %1) #7 {
  %3 = alloca ptr, align 8
  %4 = alloca i64, align 8
  store ptr %0, ptr %3, align 8, !tbaa !36
  store i64 %1, ptr %4, align 8, !tbaa !10
  %5 = load ptr, ptr %3, align 8, !tbaa !36
  call void @llvm.memcpy.p0.p0.i64(ptr align 1 %5, ptr align 8 %4, i64 8, i1 false)
  ret void
}

; Function Attrs: alwaysinline nounwind uwtable
define internal i64 @mbedtls_get_unaligned_uint64(ptr noundef %0) #7 {
  %2 = alloca ptr, align 8
  %3 = alloca i64, align 8
  store ptr %0, ptr %2, align 8, !tbaa !36
  call void @llvm.lifetime.start.p0(i64 8, ptr %3) #11
  %4 = load ptr, ptr %2, align 8, !tbaa !36
  call void @llvm.memcpy.p0.p0.i64(ptr align 8 %3, ptr align 1 %4, i64 8, i1 false)
  %5 = load i64, ptr %3, align 8, !tbaa !10
  call void @llvm.lifetime.end.p0(i64 8, ptr %3) #11
  ret i64 %5
}

; Function Attrs: alwaysinline nounwind uwtable
define internal void @mbedtls_xor_no_simd(ptr noundef %0, ptr noundef %1, ptr noundef %2, i64 noundef %3) #7 {
  %5 = alloca ptr, align 8
  %6 = alloca ptr, align 8
  %7 = alloca ptr, align 8
  %8 = alloca i64, align 8
  %9 = alloca i64, align 8
  %10 = alloca i64, align 8
  store ptr %0, ptr %5, align 8, !tbaa !8
  store ptr %1, ptr %6, align 8, !tbaa !8
  store ptr %2, ptr %7, align 8, !tbaa !8
  store i64 %3, ptr %8, align 8, !tbaa !10
  call void @llvm.lifetime.start.p0(i64 8, ptr %9) #11
  store i64 0, ptr %9, align 8, !tbaa !10
  br label %11

11:                                               ; preds = %30, %4
  %12 = load i64, ptr %9, align 8, !tbaa !10
  %13 = add i64 %12, 8
  %14 = load i64, ptr %8, align 8, !tbaa !10
  %15 = icmp ule i64 %13, %14
  br i1 %15, label %16, label %33

16:                                               ; preds = %11
  call void @llvm.lifetime.start.p0(i64 8, ptr %10) #11
  %17 = load ptr, ptr %6, align 8, !tbaa !8
  %18 = load i64, ptr %9, align 8, !tbaa !10
  %19 = getelementptr inbounds nuw i8, ptr %17, i64 %18
  %20 = call i64 @mbedtls_get_unaligned_uint64(ptr noundef %19)
  %21 = load ptr, ptr %7, align 8, !tbaa !8
  %22 = load i64, ptr %9, align 8, !tbaa !10
  %23 = getelementptr inbounds nuw i8, ptr %21, i64 %22
  %24 = call i64 @mbedtls_get_unaligned_uint64(ptr noundef %23)
  %25 = xor i64 %20, %24
  store i64 %25, ptr %10, align 8, !tbaa !10
  %26 = load ptr, ptr %5, align 8, !tbaa !8
  %27 = load i64, ptr %9, align 8, !tbaa !10
  %28 = getelementptr inbounds nuw i8, ptr %26, i64 %27
  %29 = load i64, ptr %10, align 8, !tbaa !10
  call void @mbedtls_put_unaligned_uint64(ptr noundef %28, i64 noundef %29)
  call void @llvm.lifetime.end.p0(i64 8, ptr %10) #11
  br label %30

30:                                               ; preds = %16
  %31 = load i64, ptr %9, align 8, !tbaa !10
  %32 = add i64 %31, 8
  store i64 %32, ptr %9, align 8, !tbaa !10
  br label %11, !llvm.loop !25

33:                                               ; preds = %11
  br label %34

34:                                               ; preds = %54, %33
  %35 = load i64, ptr %9, align 8, !tbaa !10
  %36 = load i64, ptr %8, align 8, !tbaa !10
  %37 = icmp ult i64 %35, %36
  br i1 %37, label %38, label %57

38:                                               ; preds = %34
  %39 = load ptr, ptr %6, align 8, !tbaa !8
  %40 = load i64, ptr %9, align 8, !tbaa !10
  %41 = getelementptr inbounds nuw i8, ptr %39, i64 %40
  %42 = load i8, ptr %41, align 1, !tbaa !26
  %43 = zext i8 %42 to i32
  %44 = load ptr, ptr %7, align 8, !tbaa !8
  %45 = load i64, ptr %9, align 8, !tbaa !10
  %46 = getelementptr inbounds nuw i8, ptr %44, i64 %45
  %47 = load i8, ptr %46, align 1, !tbaa !26
  %48 = zext i8 %47 to i32
  %49 = xor i32 %43, %48
  %50 = trunc i32 %49 to i8
  %51 = load ptr, ptr %5, align 8, !tbaa !8
  %52 = load i64, ptr %9, align 8, !tbaa !10
  %53 = getelementptr inbounds nuw i8, ptr %51, i64 %52
  store i8 %50, ptr %53, align 1, !tbaa !26
  br label %54

54:                                               ; preds = %38
  %55 = load i64, ptr %9, align 8, !tbaa !10
  %56 = add i64 %55, 1
  store i64 %56, ptr %9, align 8, !tbaa !10
  br label %34, !llvm.loop !27

57:                                               ; preds = %34
  call void @llvm.lifetime.end.p0(i64 8, ptr %9) #11
  ret void
}

; Function Attrs: inlinehint nounwind uwtable
define internal i64 @mbedtls_cipher_info_get_block_size(ptr noundef %0) #3 {
  %2 = alloca i64, align 8
  %3 = alloca ptr, align 8
  store ptr %0, ptr %3, align 8, !tbaa !20
  %4 = load ptr, ptr %3, align 8, !tbaa !20
  %5 = icmp eq ptr %4, null
  br i1 %5, label %6, label %7

6:                                                ; preds = %1
  store i64 0, ptr %2, align 8
  br label %13

7:                                                ; preds = %1
  %8 = load ptr, ptr %3, align 8, !tbaa !20
  %9 = getelementptr inbounds nuw %struct.mbedtls_cipher_info_t, ptr %8, i32 0, i32 1
  %10 = load i32, ptr %9, align 8
  %11 = and i32 %10, 31
  %12 = zext i32 %11 to i64
  store i64 %12, ptr %2, align 8
  br label %13

13:                                               ; preds = %7, %6
  %14 = load i64, ptr %2, align 8
  ret i64 %14
}

; Function Attrs: nounwind uwtable
define hidden i32 @mbedtls_cipher_cmac_update(ptr noundef %0, ptr noundef %1, i64 noundef %2) #0 {
  %4 = alloca i32, align 4
  %5 = alloca ptr, align 8
  %6 = alloca ptr, align 8
  %7 = alloca i64, align 8
  %8 = alloca ptr, align 8
  %9 = alloca ptr, align 8
  %10 = alloca i32, align 4
  %11 = alloca i64, align 8
  %12 = alloca i64, align 8
  %13 = alloca i64, align 8
  %14 = alloca i64, align 8
  %15 = alloca i32, align 4
  store ptr %0, ptr %5, align 8, !tbaa !3
  store ptr %1, ptr %6, align 8, !tbaa !8
  store i64 %2, ptr %7, align 8, !tbaa !10
  call void @llvm.lifetime.start.p0(i64 8, ptr %8) #11
  call void @llvm.lifetime.start.p0(i64 8, ptr %9) #11
  call void @llvm.lifetime.start.p0(i64 4, ptr %10) #11
  store i32 0, ptr %10, align 4, !tbaa !17
  call void @llvm.lifetime.start.p0(i64 8, ptr %11) #11
  call void @llvm.lifetime.start.p0(i64 8, ptr %12) #11
  call void @llvm.lifetime.start.p0(i64 8, ptr %13) #11
  call void @llvm.lifetime.start.p0(i64 8, ptr %14) #11
  %16 = load ptr, ptr %5, align 8, !tbaa !3
  %17 = icmp eq ptr %16, null
  br i1 %17, label %31, label %18

18:                                               ; preds = %3
  %19 = load ptr, ptr %5, align 8, !tbaa !3
  %20 = getelementptr inbounds nuw %struct.mbedtls_cipher_context_t, ptr %19, i32 0, i32 0
  %21 = load ptr, ptr %20, align 8, !tbaa !12
  %22 = icmp eq ptr %21, null
  br i1 %22, label %31, label %23

23:                                               ; preds = %18
  %24 = load ptr, ptr %6, align 8, !tbaa !8
  %25 = icmp eq ptr %24, null
  br i1 %25, label %31, label %26

26:                                               ; preds = %23
  %27 = load ptr, ptr %5, align 8, !tbaa !3
  %28 = getelementptr inbounds nuw %struct.mbedtls_cipher_context_t, ptr %27, i32 0, i32 10
  %29 = load ptr, ptr %28, align 8, !tbaa !19
  %30 = icmp eq ptr %29, null
  br i1 %30, label %31, label %32

31:                                               ; preds = %26, %23, %18, %3
  store i32 -24832, ptr %4, align 4
  store i32 1, ptr %15, align 4
  br label %155

32:                                               ; preds = %26
  %33 = load ptr, ptr %5, align 8, !tbaa !3
  %34 = getelementptr inbounds nuw %struct.mbedtls_cipher_context_t, ptr %33, i32 0, i32 10
  %35 = load ptr, ptr %34, align 8, !tbaa !19
  store ptr %35, ptr %8, align 8, !tbaa !18
  %36 = load ptr, ptr %5, align 8, !tbaa !3
  %37 = getelementptr inbounds nuw %struct.mbedtls_cipher_context_t, ptr %36, i32 0, i32 0
  %38 = load ptr, ptr %37, align 8, !tbaa !12
  %39 = call i64 @mbedtls_cipher_info_get_block_size(ptr noundef %38)
  store i64 %39, ptr %14, align 8, !tbaa !10
  %40 = load ptr, ptr %5, align 8, !tbaa !3
  %41 = getelementptr inbounds nuw %struct.mbedtls_cipher_context_t, ptr %40, i32 0, i32 10
  %42 = load ptr, ptr %41, align 8, !tbaa !19
  %43 = getelementptr inbounds nuw %struct.mbedtls_cmac_context_t, ptr %42, i32 0, i32 0
  %44 = getelementptr inbounds [16 x i8], ptr %43, i64 0, i64 0
  store ptr %44, ptr %9, align 8, !tbaa !8
  %45 = load i64, ptr %14, align 8, !tbaa !10
  %46 = icmp ule i64 %45, 16
  call void @llvm.assume(i1 %46)
  %47 = load ptr, ptr %8, align 8, !tbaa !18
  %48 = getelementptr inbounds nuw %struct.mbedtls_cmac_context_t, ptr %47, i32 0, i32 2
  %49 = load i64, ptr %48, align 8, !tbaa !21
  %50 = icmp ugt i64 %49, 0
  br i1 %50, label %51, label %102

51:                                               ; preds = %32
  %52 = load i64, ptr %7, align 8, !tbaa !10
  %53 = load i64, ptr %14, align 8, !tbaa !10
  %54 = load ptr, ptr %8, align 8, !tbaa !18
  %55 = getelementptr inbounds nuw %struct.mbedtls_cmac_context_t, ptr %54, i32 0, i32 2
  %56 = load i64, ptr %55, align 8, !tbaa !21
  %57 = sub i64 %53, %56
  %58 = icmp ugt i64 %52, %57
  br i1 %58, label %59, label %102

59:                                               ; preds = %51
  %60 = load ptr, ptr %8, align 8, !tbaa !18
  %61 = getelementptr inbounds nuw %struct.mbedtls_cmac_context_t, ptr %60, i32 0, i32 1
  %62 = load ptr, ptr %8, align 8, !tbaa !18
  %63 = getelementptr inbounds nuw %struct.mbedtls_cmac_context_t, ptr %62, i32 0, i32 2
  %64 = load i64, ptr %63, align 8, !tbaa !21
  %65 = getelementptr inbounds nuw [16 x i8], ptr %61, i64 0, i64 %64
  %66 = load ptr, ptr %6, align 8, !tbaa !8
  %67 = load i64, ptr %14, align 8, !tbaa !10
  %68 = load ptr, ptr %8, align 8, !tbaa !18
  %69 = getelementptr inbounds nuw %struct.mbedtls_cmac_context_t, ptr %68, i32 0, i32 2
  %70 = load i64, ptr %69, align 8, !tbaa !21
  %71 = sub i64 %67, %70
  call void @llvm.memcpy.p0.p0.i64(ptr align 1 %65, ptr align 1 %66, i64 %71, i1 false)
  %72 = load ptr, ptr %9, align 8, !tbaa !8
  %73 = load ptr, ptr %8, align 8, !tbaa !18
  %74 = getelementptr inbounds nuw %struct.mbedtls_cmac_context_t, ptr %73, i32 0, i32 1
  %75 = getelementptr inbounds [16 x i8], ptr %74, i64 0, i64 0
  %76 = load ptr, ptr %9, align 8, !tbaa !8
  %77 = load i64, ptr %14, align 8, !tbaa !10
  call void @mbedtls_xor_no_simd(ptr noundef %72, ptr noundef %75, ptr noundef %76, i64 noundef %77)
  %78 = load ptr, ptr %5, align 8, !tbaa !3
  %79 = load ptr, ptr %9, align 8, !tbaa !8
  %80 = load i64, ptr %14, align 8, !tbaa !10
  %81 = load ptr, ptr %9, align 8, !tbaa !8
  %82 = call i32 @mbedtls_cipher_update(ptr noundef %78, ptr noundef %79, i64 noundef %80, ptr noundef %81, ptr noundef %13)
  store i32 %82, ptr %10, align 4, !tbaa !17
  %83 = icmp ne i32 %82, 0
  br i1 %83, label %84, label %85

84:                                               ; preds = %59
  br label %153

85:                                               ; preds = %59
  %86 = load i64, ptr %14, align 8, !tbaa !10
  %87 = load ptr, ptr %8, align 8, !tbaa !18
  %88 = getelementptr inbounds nuw %struct.mbedtls_cmac_context_t, ptr %87, i32 0, i32 2
  %89 = load i64, ptr %88, align 8, !tbaa !21
  %90 = sub i64 %86, %89
  %91 = load ptr, ptr %6, align 8, !tbaa !8
  %92 = getelementptr inbounds nuw i8, ptr %91, i64 %90
  store ptr %92, ptr %6, align 8, !tbaa !8
  %93 = load i64, ptr %14, align 8, !tbaa !10
  %94 = load ptr, ptr %8, align 8, !tbaa !18
  %95 = getelementptr inbounds nuw %struct.mbedtls_cmac_context_t, ptr %94, i32 0, i32 2
  %96 = load i64, ptr %95, align 8, !tbaa !21
  %97 = sub i64 %93, %96
  %98 = load i64, ptr %7, align 8, !tbaa !10
  %99 = sub i64 %98, %97
  store i64 %99, ptr %7, align 8, !tbaa !10
  %100 = load ptr, ptr %8, align 8, !tbaa !18
  %101 = getelementptr inbounds nuw %struct.mbedtls_cmac_context_t, ptr %100, i32 0, i32 2
  store i64 0, ptr %101, align 8, !tbaa !21
  br label %102

102:                                              ; preds = %85, %51, %32
  %103 = load i64, ptr %7, align 8, !tbaa !10
  %104 = load i64, ptr %14, align 8, !tbaa !10
  %105 = add i64 %103, %104
  %106 = sub i64 %105, 1
  %107 = load i64, ptr %14, align 8, !tbaa !10
  %108 = udiv i64 %106, %107
  store i64 %108, ptr %11, align 8, !tbaa !10
  store i64 1, ptr %12, align 8, !tbaa !10
  br label %109

109:                                              ; preds = %132, %102
  %110 = load i64, ptr %12, align 8, !tbaa !10
  %111 = load i64, ptr %11, align 8, !tbaa !10
  %112 = icmp ult i64 %110, %111
  br i1 %112, label %113, label %135

113:                                              ; preds = %109
  %114 = load ptr, ptr %9, align 8, !tbaa !8
  %115 = load ptr, ptr %6, align 8, !tbaa !8
  %116 = load ptr, ptr %9, align 8, !tbaa !8
  %117 = load i64, ptr %14, align 8, !tbaa !10
  call void @mbedtls_xor_no_simd(ptr noundef %114, ptr noundef %115, ptr noundef %116, i64 noundef %117)
  %118 = load ptr, ptr %5, align 8, !tbaa !3
  %119 = load ptr, ptr %9, align 8, !tbaa !8
  %120 = load i64, ptr %14, align 8, !tbaa !10
  %121 = load ptr, ptr %9, align 8, !tbaa !8
  %122 = call i32 @mbedtls_cipher_update(ptr noundef %118, ptr noundef %119, i64 noundef %120, ptr noundef %121, ptr noundef %13)
  store i32 %122, ptr %10, align 4, !tbaa !17
  %123 = icmp ne i32 %122, 0
  br i1 %123, label %124, label %125

124:                                              ; preds = %113
  br label %153

125:                                              ; preds = %113
  %126 = load i64, ptr %14, align 8, !tbaa !10
  %127 = load i64, ptr %7, align 8, !tbaa !10
  %128 = sub i64 %127, %126
  store i64 %128, ptr %7, align 8, !tbaa !10
  %129 = load i64, ptr %14, align 8, !tbaa !10
  %130 = load ptr, ptr %6, align 8, !tbaa !8
  %131 = getelementptr inbounds nuw i8, ptr %130, i64 %129
  store ptr %131, ptr %6, align 8, !tbaa !8
  br label %132

132:                                              ; preds = %125
  %133 = load i64, ptr %12, align 8, !tbaa !10
  %134 = add i64 %133, 1
  store i64 %134, ptr %12, align 8, !tbaa !10
  br label %109, !llvm.loop !23

135:                                              ; preds = %109
  %136 = load i64, ptr %7, align 8, !tbaa !10
  %137 = icmp ugt i64 %136, 0
  br i1 %137, label %138, label %152

138:                                              ; preds = %135
  %139 = load ptr, ptr %8, align 8, !tbaa !18
  %140 = getelementptr inbounds nuw %struct.mbedtls_cmac_context_t, ptr %139, i32 0, i32 1
  %141 = load ptr, ptr %8, align 8, !tbaa !18
  %142 = getelementptr inbounds nuw %struct.mbedtls_cmac_context_t, ptr %141, i32 0, i32 2
  %143 = load i64, ptr %142, align 8, !tbaa !21
  %144 = getelementptr inbounds nuw [16 x i8], ptr %140, i64 0, i64 %143
  %145 = load ptr, ptr %6, align 8, !tbaa !8
  %146 = load i64, ptr %7, align 8, !tbaa !10
  call void @llvm.memcpy.p0.p0.i64(ptr align 1 %144, ptr align 1 %145, i64 %146, i1 false)
  %147 = load i64, ptr %7, align 8, !tbaa !10
  %148 = load ptr, ptr %8, align 8, !tbaa !18
  %149 = getelementptr inbounds nuw %struct.mbedtls_cmac_context_t, ptr %148, i32 0, i32 2
  %150 = load i64, ptr %149, align 8, !tbaa !21
  %151 = add i64 %150, %147
  store i64 %151, ptr %149, align 8, !tbaa !21
  br label %152

152:                                              ; preds = %138, %135
  br label %153

153:                                              ; preds = %152, %124, %84
  %154 = load i32, ptr %10, align 4, !tbaa !17
  store i32 %154, ptr %4, align 4
  store i32 1, ptr %15, align 4
  br label %155

155:                                              ; preds = %153, %31
  call void @llvm.lifetime.end.p0(i64 8, ptr %14) #11
  call void @llvm.lifetime.end.p0(i64 8, ptr %13) #11
  call void @llvm.lifetime.end.p0(i64 8, ptr %12) #11
  call void @llvm.lifetime.end.p0(i64 8, ptr %11) #11
  call void @llvm.lifetime.end.p0(i64 4, ptr %10) #11
  call void @llvm.lifetime.end.p0(i64 8, ptr %9) #11
  call void @llvm.lifetime.end.p0(i64 8, ptr %8) #11
  %156 = load i32, ptr %4, align 4
  ret i32 %156
}