; Function Attrs: nounwind uwtable
define hidden i32 @mbedtls_cipher_cmac_update(ptr noundef %0, ptr noundef readonly %1, i64 noundef %2) local_unnamed_addr #0 {
  %4 = alloca i64, align 8
  call void @llvm.lifetime.start.p0(i64 8, ptr nonnull %4) #13
  %5 = icmp eq ptr %0, null
  br i1 %5, label %.loopexit, label %6

6:                                                ; preds = %3
  %7 = load ptr, ptr %0, align 8, !tbaa !3
  %8 = icmp eq ptr %7, null
  %9 = icmp eq ptr %1, null
  %or.cond = or i1 %9, %8
  br i1 %or.cond, label %.loopexit, label %10

10:                                               ; preds = %6
  %11 = getelementptr inbounds nuw i8, ptr %0, i64 88
  %12 = load ptr, ptr %11, align 8, !tbaa !12
  %13 = icmp eq ptr %12, null
  br i1 %13, label %.loopexit, label %mbedtls_cipher_info_get_block_size.exit

mbedtls_cipher_info_get_block_size.exit:          ; preds = %10
  %14 = getelementptr inbounds nuw i8, ptr %7, i64 8
  %15 = load i32, ptr %14, align 8
  %16 = and i32 %15, 31
  %17 = zext nneg i32 %16 to i64
  %18 = icmp samesign ult i32 %16, 17
  tail call void @llvm.assume(i1 %18)
  %19 = getelementptr inbounds nuw i8, ptr %12, i64 32
  %20 = load i64, ptr %19, align 8, !tbaa !13
  %.not = icmp eq i64 %20, 0
  br i1 %.not, label %45, label %21

21:                                               ; preds = %mbedtls_cipher_info_get_block_size.exit
  %22 = sub i64 %17, %20
  %23 = icmp ugt i64 %2, %22
  br i1 %23, label %24, label %45

24:                                               ; preds = %21
  %25 = getelementptr inbounds nuw i8, ptr %12, i64 16
  %26 = getelementptr inbounds nuw [16 x i8], ptr %25, i64 0, i64 %20
  tail call void @llvm.memcpy.p0.p0.i64(ptr nonnull align 1 %26, ptr nonnull align 1 %1, i64 %22, i1 false)
  %.not.i92 = icmp samesign ult i32 %16, 8
  br i1 %.not.i92, label %.preheader89, label %.lr.ph

.preheader89:                                     ; preds = %.lr.ph, %24
  %.0.i.lcssa = phi i64 [ 0, %24 ], [ %28, %.lr.ph ]
  %27 = icmp samesign ult i64 %.0.i.lcssa, %17
  br i1 %27, label %.lr.ph95, label %mbedtls_xor_no_simd.exit

.lr.ph:                                           ; preds = %24, %.lr.ph
  %28 = phi i64 [ %32, %.lr.ph ], [ 8, %24 ]
  %.0.i93 = phi i64 [ 8, %.lr.ph ], [ 0, %24 ]
  %29 = getelementptr inbounds nuw i8, ptr %25, i64 %.0.i93
  %.0.copyload.i86 = load i64, ptr %29, align 1
  %30 = getelementptr inbounds nuw i8, ptr %12, i64 %.0.i93
  %.0.copyload.i85 = load i64, ptr %30, align 1
  %31 = xor i64 %.0.copyload.i85, %.0.copyload.i86
  store i64 %31, ptr %30, align 1
  %32 = add nuw nsw i64 %28, 8
  %.not.i = icmp samesign ugt i64 %32, %17
  br i1 %.not.i, label %.preheader89, label %.lr.ph, !llvm.loop !15

.lr.ph95:                                         ; preds = %.preheader89, %.lr.ph95
  %.1.i94 = phi i64 [ %38, %.lr.ph95 ], [ %.0.i.lcssa, %.preheader89 ]
  %33 = getelementptr inbounds nuw i8, ptr %25, i64 %.1.i94
  %34 = load i8, ptr %33, align 1, !tbaa !17
  %35 = getelementptr inbounds nuw i8, ptr %12, i64 %.1.i94
  %36 = load i8, ptr %35, align 1, !tbaa !17
  %37 = xor i8 %36, %34
  store i8 %37, ptr %35, align 1, !tbaa !17
  %38 = add nuw nsw i64 %.1.i94, 1
  %exitcond.not = icmp eq i64 %38, %17
  br i1 %exitcond.not, label %mbedtls_xor_no_simd.exit, label %.lr.ph95, !llvm.loop !18

mbedtls_xor_no_simd.exit:                         ; preds = %.lr.ph95, %.preheader89
  %39 = call i32 @mbedtls_cipher_update(ptr noundef nonnull %0, ptr noundef nonnull %12, i64 noundef %17, ptr noundef nonnull %12, ptr noundef nonnull %4) #13
  %.not77 = icmp eq i32 %39, 0
  br i1 %.not77, label %40, label %.loopexit

40:                                               ; preds = %mbedtls_xor_no_simd.exit
  %41 = load i64, ptr %19, align 8, !tbaa !13
  %42 = sub i64 %17, %41
  %43 = getelementptr inbounds nuw i8, ptr %1, i64 %42
  %44 = sub i64 %2, %42
  store i64 0, ptr %19, align 8, !tbaa !13
  br label %45

45:                                               ; preds = %40, %21, %mbedtls_cipher_info_get_block_size.exit
  %.063 = phi i64 [ %44, %40 ], [ %2, %21 ], [ %2, %mbedtls_cipher_info_get_block_size.exit ]
  %.060 = phi ptr [ %43, %40 ], [ %1, %21 ], [ %1, %mbedtls_cipher_info_get_block_size.exit ]
  %46 = add nsw i64 %17, -1
  %47 = add i64 %46, %.063
  %48 = udiv i64 %47, %17
  %49 = icmp ugt i64 %48, 1
  br i1 %49, label %.preheader88.lr.ph, label %._crit_edge

.preheader88.lr.ph:                               ; preds = %45
  %.not.i8196 = icmp samesign ult i32 %16, 8
  br i1 %.not.i8196, label %.preheader88.us.preheader, label %.preheader88

.preheader88.us.preheader:                        ; preds = %.preheader88.lr.ph
  %umax = call i64 @llvm.umax.i64(i64 %17, i64 1)
  br label %.preheader88.us

.preheader88.us:                                  ; preds = %.preheader88.us.preheader, %50
  %.059104.us = phi i64 [ %53, %50 ], [ 1, %.preheader88.us.preheader ]
  %.1103.us = phi ptr [ %52, %50 ], [ %.060, %.preheader88.us.preheader ]
  %.164102.us = phi i64 [ %51, %50 ], [ %.063, %.preheader88.us.preheader ]
  br label %55

50:                                               ; preds = %.mbedtls_xor_no_simd.exit83_crit_edge.us
  %51 = sub i64 %.164102.us, %17
  %52 = getelementptr inbounds nuw i8, ptr %.1103.us, i64 %17
  %53 = add nuw i64 %.059104.us, 1
  %54 = icmp ult i64 %53, %48
  br i1 %54, label %.preheader88.us, label %._crit_edge, !llvm.loop !19

55:                                               ; preds = %.preheader88.us, %55
  %.1.i82100.us = phi i64 [ 0, %.preheader88.us ], [ %61, %55 ]
  %56 = getelementptr inbounds nuw i8, ptr %.1103.us, i64 %.1.i82100.us
  %57 = load i8, ptr %56, align 1, !tbaa !17
  %58 = getelementptr inbounds nuw i8, ptr %12, i64 %.1.i82100.us
  %59 = load i8, ptr %58, align 1, !tbaa !17
  %60 = xor i8 %59, %57
  store i8 %60, ptr %58, align 1, !tbaa !17
  %61 = add nuw nsw i64 %.1.i82100.us, 1
  %exitcond120.not = icmp eq i64 %61, %umax
  br i1 %exitcond120.not, label %.mbedtls_xor_no_simd.exit83_crit_edge.us, label %55, !llvm.loop !18

.mbedtls_xor_no_simd.exit83_crit_edge.us:         ; preds = %55
  %62 = call i32 @mbedtls_cipher_update(ptr noundef nonnull %0, ptr noundef nonnull %12, i64 noundef %17, ptr noundef nonnull %12, ptr noundef nonnull %4) #13
  %.not79.us = icmp eq i32 %62, 0
  br i1 %.not79.us, label %50, label %.loopexit

.preheader88:                                     ; preds = %.preheader88.lr.ph, %78
  %.059104 = phi i64 [ %81, %78 ], [ 1, %.preheader88.lr.ph ]
  %.1103 = phi ptr [ %80, %78 ], [ %.060, %.preheader88.lr.ph ]
  %.164102 = phi i64 [ %79, %78 ], [ %.063, %.preheader88.lr.ph ]
  br label %64

..preheader_crit_edge:                            ; preds = %64
  %63 = icmp samesign ult i64 %65, %17
  br i1 %63, label %.lr.ph101, label %mbedtls_xor_no_simd.exit83

64:                                               ; preds = %.preheader88, %64
  %65 = phi i64 [ 8, %.preheader88 ], [ %69, %64 ]
  %.0.i8097 = phi i64 [ 0, %.preheader88 ], [ %65, %64 ]
  %66 = getelementptr inbounds nuw i8, ptr %.1103, i64 %.0.i8097
  %.0.copyload.i84 = load i64, ptr %66, align 1
  %67 = getelementptr inbounds nuw i8, ptr %12, i64 %.0.i8097
  %.0.copyload.i = load i64, ptr %67, align 1
  %68 = xor i64 %.0.copyload.i, %.0.copyload.i84
  store i64 %68, ptr %67, align 1
  %69 = add nuw nsw i64 %65, 8
  %.not.i81 = icmp samesign ugt i64 %69, %17
  br i1 %.not.i81, label %..preheader_crit_edge, label %64, !llvm.loop !15

.lr.ph101:                                        ; preds = %..preheader_crit_edge, %.lr.ph101
  %.1.i82100 = phi i64 [ %75, %.lr.ph101 ], [ %65, %..preheader_crit_edge ]
  %70 = getelementptr inbounds nuw i8, ptr %.1103, i64 %.1.i82100
  %71 = load i8, ptr %70, align 1, !tbaa !17
  %72 = getelementptr inbounds nuw i8, ptr %12, i64 %.1.i82100
  %73 = load i8, ptr %72, align 1, !tbaa !17
  %74 = xor i8 %73, %71
  store i8 %74, ptr %72, align 1, !tbaa !17
  %75 = add nuw nsw i64 %.1.i82100, 1
  %76 = icmp samesign ult i64 %75, %17
  br i1 %76, label %.lr.ph101, label %mbedtls_xor_no_simd.exit83, !llvm.loop !18

mbedtls_xor_no_simd.exit83:                       ; preds = %.lr.ph101, %..preheader_crit_edge
  %77 = call i32 @mbedtls_cipher_update(ptr noundef nonnull %0, ptr noundef nonnull %12, i64 noundef %17, ptr noundef nonnull %12, ptr noundef nonnull %4) #13
  %.not79 = icmp eq i32 %77, 0
  br i1 %.not79, label %78, label %.loopexit

78:                                               ; preds = %mbedtls_xor_no_simd.exit83
  %79 = sub i64 %.164102, %17
  %80 = getelementptr inbounds nuw i8, ptr %.1103, i64 %17
  %81 = add nuw i64 %.059104, 1
  %82 = icmp ult i64 %81, %48
  br i1 %82, label %.preheader88, label %._crit_edge, !llvm.loop !19

._crit_edge:                                      ; preds = %78, %50, %45
  %.164.lcssa = phi i64 [ %.063, %45 ], [ %51, %50 ], [ %79, %78 ]
  %.1.lcssa = phi ptr [ %.060, %45 ], [ %52, %50 ], [ %80, %78 ]
  %.not78 = icmp eq i64 %.164.lcssa, 0
  br i1 %.not78, label %.loopexit, label %83

83:                                               ; preds = %._crit_edge
  %84 = getelementptr inbounds nuw i8, ptr %12, i64 16
  %85 = load i64, ptr %19, align 8, !tbaa !13
  %86 = getelementptr inbounds nuw [16 x i8], ptr %84, i64 0, i64 %85
  call void @llvm.memcpy.p0.p0.i64(ptr nonnull align 1 %86, ptr align 1 %.1.lcssa, i64 %.164.lcssa, i1 false)
  %87 = load i64, ptr %19, align 8, !tbaa !13
  %88 = add i64 %87, %.164.lcssa
  store i64 %88, ptr %19, align 8, !tbaa !13
  br label %.loopexit

.loopexit:                                        ; preds = %mbedtls_xor_no_simd.exit83, %.mbedtls_xor_no_simd.exit83_crit_edge.us, %mbedtls_xor_no_simd.exit, %83, %._crit_edge, %3, %6, %10
  %.0 = phi i32 [ -24832, %10 ], [ -24832, %6 ], [ -24832, %3 ], [ %39, %mbedtls_xor_no_simd.exit ], [ 0, %83 ], [ 0, %._crit_edge ], [ %62, %.mbedtls_xor_no_simd.exit83_crit_edge.us ], [ %77, %mbedtls_xor_no_simd.exit83 ]
  call void @llvm.lifetime.end.p0(i64 8, ptr nonnull %4) #13
  ret i32 %.0
}